; Function Attrs: mustprogress uwtable
define noundef ptr @_ZN3re29Prefilter4Info13LiteralLatin1Ei(i32 noundef %r) local_unnamed_addr #0 align 2 personality ptr @__gxx_personality_v0 {
entry:
  %__an.i.i = alloca %"struct.std::_Rb_tree<std::__cxx11::basic_string<char>, std::__cxx11::basic_string<char>, std::_Identity<std::__cxx11::basic_string<char>>, re2::Prefilter::LengthThenLex>::_Alloc_node", align 8
  %c.i = alloca i8, align 1
  %ref.tmp.i = alloca %"class.std::allocator", align 1
  %ref.tmp = alloca %"class.std::__cxx11::basic_string", align 8
  %call = tail call noalias noundef nonnull dereferenceable(64) ptr @_Znwm(i64 noundef 64) #17
  invoke void @_ZN3re29Prefilter4InfoC1Ev(ptr noundef nonnull align 8 dereferenceable(64) %call)
          to label %invoke.cont unwind label %lpad

invoke.cont:                                      ; preds = %entry
  %0 = add i32 %r, -65
  %or.cond.i = icmp ult i32 %0, 26
  %add.i = or disjoint i32 %r, 32
  %spec.select.i = select i1 %or.cond.i, i32 %add.i, i32 %r
  call void @llvm.lifetime.start.p0(i64 1, ptr nonnull %c.i)
  call void @llvm.lifetime.start.p0(i64 1, ptr nonnull %ref.tmp.i)
  %conv.i = trunc i32 %spec.select.i to i8
  store i8 %conv.i, ptr %c.i, align 1, !noalias !23
  call void @_ZNSaIcEC1Ev(ptr noundef nonnull align 1 dereferenceable(1) %ref.tmp.i) #16, !noalias !23
  invoke void @_ZNSt7__cxx1112basic_stringIcSt11char_traitsIcESaIcEEC1EPKcmRKS3_(ptr noundef nonnull align 8 dereferenceable(32) %ref.tmp, ptr noundef nonnull %c.i, i64 noundef 1, ptr noundef nonnull align 1 dereferenceable(1) %ref.tmp.i)
          to label %_ZN3re2L18RuneToStringLatin1B5cxx11Ei.exit unwind label %lpad.i

common.resume:                                    ; preds = %lpad, %lpad2, %lpad.i
  %common.resume.op = phi { ptr, i32 } [ %1, %lpad.i ], [ %5, %lpad2 ], [ %4, %lpad ]
  resume { ptr, i32 } %common.resume.op

lpad.i:                                           ; preds = %invoke.cont
  %1 = landingpad { ptr, i32 }
          cleanup
  call void @_ZNSaIcED1Ev(ptr noundef nonnull align 1 dereferenceable(1) %ref.tmp.i) #16
  br label %common.resume

_ZN3re2L18RuneToStringLatin1B5cxx11Ei.exit:       ; preds = %invoke.cont
  call void @_ZNSaIcED1Ev(ptr noundef nonnull align 1 dereferenceable(1) %ref.tmp.i) #16
  call void @llvm.lifetime.end.p0(i64 1, ptr nonnull %c.i)
  call void @llvm.lifetime.end.p0(i64 1, ptr nonnull %ref.tmp.i)
  call void @llvm.lifetime.start.p0(i64 8, ptr nonnull %__an.i.i)
  %call2.i.i4 = invoke { ptr, ptr } @_ZNSt8_Rb_treeINSt7__cxx1112basic_stringIcSt11char_traitsIcESaIcEEES5_St9_IdentityIS5_EN3re29Prefilter13LengthThenLexESaIS5_EE24_M_get_insert_unique_posERKS5_(ptr noundef nonnull align 8 dereferenceable(48) %call, ptr noundef nonnull align 8 dereferenceable(32) %ref.tmp)
          to label %call2.i.i.noexc unwind label %lpad2

call2.i.i.noexc:                                  ; preds = %_ZN3re2L18RuneToStringLatin1B5cxx11Ei.exit
  %2 = extractvalue { ptr, ptr } %call2.i.i4, 1
  %tobool.not.i.i = icmp eq ptr %2, null
  br i1 %tobool.not.i.i, label %invoke.cont3, label %if.then.i.i

if.then.i.i:                                      ; preds = %call2.i.i.noexc
  %3 = extractvalue { ptr, ptr } %call2.i.i4, 0
  store ptr %call, ptr %__an.i.i, align 8
  %call5.i.i5 = invoke ptr @_ZNSt8_Rb_treeINSt7__cxx1112basic_stringIcSt11char_traitsIcESaIcEEES5_St9_IdentityIS5_EN3re29Prefilter13LengthThenLexESaIS5_EE10_M_insert_IS5_NSC_11_Alloc_nodeEEESt17_Rb_tree_iteratorIS5_EPSt18_Rb_tree_node_baseSI_OT_RT0_(ptr noundef nonnull align 8 dereferenceable(48) %call, ptr noundef %3, ptr noundef nonnull %2, ptr noundef nonnull align 8 dereferenceable(32) %ref.tmp, ptr noundef nonnull align 8 dereferenceable(8) %__an.i.i)
          to label %invoke.cont3 unwind label %lpad2

invoke.cont3:                                     ; preds = %call2.i.i.noexc, %if.then.i.i
  call void @llvm.lifetime.end.p0(i64 8, ptr nonnull %__an.i.i)
  call void @_ZNSt7__cxx1112basic_stringIcSt11char_traitsIcESaIcEED1Ev(ptr noundef nonnull align 8 dereferenceable(32) %ref.tmp) #16
  %is_exact_ = getelementptr inbounds i8, ptr %call, i64 48
  store i8 1, ptr %is_exact_, align 8
  ret ptr %call

lpad:                                             ; preds = %entry
  %4 = landingpad { ptr, i32 }
          cleanup
  tail call void @_ZdlPv(ptr noundef nonnull %call) #18
  br label %common.resume

lpad2:                                            ; preds = %if.then.i.i, %_ZN3re2L18RuneToStringLatin1B5cxx11Ei.exit
  %5 = landingpad { ptr, i32 }
          cleanup
  call void @_ZNSt7__cxx1112basic_stringIcSt11char_traitsIcESaIcEED1Ev(ptr noundef nonnull align 8 dereferenceable(32) %ref.tmp) #16
  br label %common.resume
}